Certificate:
    Data:
        Version: 3 (0x2)
        Serial Number:
            16:21:2a:a1:8f:86:19:2b:de:50:30:0b:fe:f7:be:c0:6e:20:ec:ac
        Signature Algorithm: sha256WithRSAEncryption
        Issuer: C=de, ST=RPL, O=uib gmbh, CN=opsi-script-test test CA
        Validity
            Not Before: Feb  7 08:19:38 2022 GMT
            Not After : Feb  6 08:19:38 2025 GMT
        Subject: C=de, ST=RPL, O=uib gmbh, CN=opsi-script-test test CA
        Subject Public Key Info:
            Public Key Algorithm: rsaEncryption
                RSA Public-Key: (2048 bit)
                Modulus:
                    00:c3:26:b9:64:b2:01:14:30:4b:9f:30:5b:23:7e:
                    34:bd:7f:95:ab:10:d8:14:11:e5:1e:d0:13:e4:f5:
                    07:1a:31:f4:ab:e7:39:fb:1c:cd:f1:cc:65:dd:8a:
                    30:4d:e5:a9:9d:7b:3c:88:ee:01:98:d6:e4:a4:5d:
                    ed:34:f3:b8:73:a9:39:06:3f:1c:fa:ff:eb:95:66:
                    48:50:18:6a:e6:94:ff:15:1b:22:b1:c1:bc:59:79:
                    3b:71:9a:d4:1e:f8:1b:6c:04:31:63:29:af:86:0b:
                    d0:82:96:61:94:cc:98:6a:b6:4f:a2:bd:9c:c4:f4:
                    64:c3:90:84:e9:ef:1f:8f:38:a4:9a:4e:1a:05:16:
                    e8:45:b3:33:d8:a6:96:c1:b9:7a:e0:38:e4:53:b7:
                    a4:e9:d5:b2:2c:33:55:8a:89:f7:cb:84:27:a6:9b:
                    c1:9c:25:fb:e1:be:e7:76:ef:22:19:84:2a:37:42:
                    57:33:45:43:18:04:97:eb:71:52:d6:e9:ca:6c:a6:
                    87:0a:16:ec:25:34:81:ee:63:f2:9e:c6:60:01:42:
                    8a:11:09:10:c2:1c:ec:20:82:42:0f:20:09:e9:a8:
                    b0:43:03:d7:cc:54:e4:fa:32:41:a0:ec:f6:61:a4:
                    5e:c1:6a:86:76:1a:b7:ba:d0:c7:9f:1a:28:17:99:
                    15:8d
                Exponent: 65537 (0x10001)
        X509v3 extensions:
            X509v3 Subject Key Identifier: 
                0B:A1:02:A9:BE:E8:D8:05:94:7A:6A:E5:6D:E0:97:6D:FB:71:62:62
            X509v3 Authority Key Identifier: 
                keyid:0B:A1:02:A9:BE:E8:D8:05:94:7A:6A:E5:6D:E0:97:6D:FB:71:62:62

            X509v3 Basic Constraints: critical
                CA:TRUE
    Signature Algorithm: sha256WithRSAEncryption
         80:42:51:96:e0:45:32:ec:1e:63:80:fc:8d:3a:ca:e3:d8:e9:
         61:1f:fa:9c:84:97:ce:ff:71:36:47:81:d3:05:b1:47:0f:d6:
         cf:c6:3f:8d:ea:a0:35:bf:6a:af:c9:03:7a:8b:71:62:47:b7:
         95:33:cd:6a:55:4e:45:5c:17:fd:e8:61:39:94:3d:d6:96:f5:
         c4:f8:af:60:06:dc:28:8e:18:48:cb:13:3a:b1:da:a3:dc:91:
         05:41:d8:7a:0f:00:9d:03:1c:01:19:ec:c2:3e:bf:e7:b8:6a:
         18:3e:97:57:39:64:ec:df:1b:32:f2:c7:bf:bf:90:19:9c:13:
         02:19:fd:86:e4:aa:09:b6:4e:48:3c:2d:39:ae:6f:d6:0d:b3:
         3b:5e:92:70:e1:7e:11:98:01:e7:d0:fd:d3:22:6c:00:28:87:
         f8:4b:09:62:34:25:d5:ef:e1:58:90:16:96:1d:35:66:fc:ce:
         01:cc:1d:6e:7e:30:6d:cc:6f:8a:dd:e1:78:64:b0:4f:f1:8e:
         1b:89:80:be:55:f5:6b:81:3f:c4:a4:61:18:73:8c:59:cc:3d:
         d8:e7:32:34:9e:8a:93:60:aa:5b:27:f2:61:08:fc:c7:8c:8a:
         38:ad:b2:87:72:d6:ec:25:ab:86:08:8d:30:5a:9d:70:01:a9:
         b3:37:c5:08
-----BEGIN CERTIFICATE-----
MIIDgzCCAmugAwIBAgIUFiEqoY+GGSveUDAL/ve+wG4g7KwwDQYJKoZIhvcNAQEL
BQAwUTELMAkGA1UEBhMCZGUxDDAKBgNVBAgMA1JQTDERMA8GA1UECgwIdWliIGdt
YmgxITAfBgNVBAMMGG9wc2ktc2NyaXB0LXRlc3QgdGVzdCBDQTAeFw0yMjAyMDcw
ODE5MzhaFw0yNTAyMDYwODE5MzhaMFExCzAJBgNVBAYTAmRlMQwwCgYDVQQIDANS
UEwxETAPBgNVBAoMCHVpYiBnbWJoMSEwHwYDVQQDDBhvcHNpLXNjcmlwdC10ZXN0
IHRlc3QgQ0EwggEiMA0GCSqGSIb3DQEBAQUAA4IBDwAwggEKAoIBAQDDJrlksgEU
MEufMFsjfjS9f5WrENgUEeUe0BPk9QcaMfSr5zn7HM3xzGXdijBN5amdezyI7gGY
1uSkXe0087hzqTkGPxz6/+uVZkhQGGrmlP8VGyKxwbxZeTtxmtQe+BtsBDFjKa+G
C9CClmGUzJhqtk+ivZzE9GTDkITp7x+POKSaThoFFuhFszPYppbBuXrgOORTt6Tp
1bIsM1WKiffLhCemm8GcJfvhvud27yIZhCo3QlczRUMYBJfrcVLW6cpspocKFuwl
NIHuY/KexmABQooRCRDCHOwggkIPIAnpqLBDA9fMVOT6MkGg7PZhpF7BaoZ2Gre6
0MefGigXmRWNAgMBAAGjUzBRMB0GA1UdDgQWBBQLoQKpvujYBZR6auVt4Jdt+3Fi
YjAfBgNVHSMEGDAWgBQLoQKpvujYBZR6auVt4Jdt+3FiYjAPBgNVHRMBAf8EBTAD
AQH/MA0GCSqGSIb3DQEBCwUAA4IBAQCAQlGW4EUy7B5jgPyNOsrj2OlhH/qchJfO
/3E2R4HTBbFHD9bPxj+N6qA1v2qvyQN6i3FiR7eVM81qVU5FXBf96GE5lD3WlvXE
+K9gBtwojhhIyxM6sdqj3JEFQdh6DwCdAxwBGezCPr/nuGoYPpdXOWTs3xsy8se/
v5AZnBMCGf2G5KoJtk5IPC05rm/WDbM7XpJw4X4RmAHn0P3TImwAKIf4SwliNCXV
7+FYkBaWHTVm/M4BzB1ufjBtzG+K3eF4ZLBP8Y4biYC+VfVrgT/EpGEYc4xZzD3Y
5zI0noqTYKpbJ/JhCPzHjIo4rbKHctbsJauGCI0wWp1wAamzN8UI
-----END CERTIFICATE-----
